target datalayout = "e-m:e-p270:32:32-p271:32:32-p272:64:64-i64:64-i128:128-f80:128-n8:16:32:64-S128"
target triple = "x86_64-pc-linux-gnu"

%struct.object_id = type { [32 x i8], i32 }
%struct.patch = type { ptr, ptr, ptr, i32, i32, i32, i32, i32, i32, i32, i32, i32, i32, i16, ptr, ptr, i64, [65 x i8], [65 x i8], ptr, [3 x %struct.object_id] }
%struct.gitdiff_data = type { ptr, i32, i32 }

; Function Attrs: nounwind uwtable
define internal ptr @find_name(ptr noundef %0, ptr noundef %1, ptr noundef %2, i32 noundef %3, i32 noundef %4) #0 {
  %6 = alloca ptr, align 8
  %7 = alloca ptr, align 8
  %8 = alloca ptr, align 8
  %9 = alloca ptr, align 8
  %10 = alloca i32, align 4
  %11 = alloca i32, align 4
  %12 = alloca ptr, align 8
  %13 = alloca i32, align 4
  store ptr %0, ptr %7, align 8, !tbaa !75
  store ptr %1, ptr %8, align 8, !tbaa !11
  store ptr %2, ptr %9, align 8, !tbaa !11
  store i32 %3, ptr %10, align 4, !tbaa !39
  store i32 %4, ptr %11, align 4, !tbaa !39
  %14 = load ptr, ptr %8, align 8, !tbaa !11
  %15 = load i8, ptr %14, align 1, !tbaa !57
  %16 = sext i8 %15 to i32
  %17 = icmp eq i32 %16, 34
  br i1 %17, label %18, label %31

18:                                               ; preds = %5
  call void @llvm.lifetime.start.p0(i64 8, ptr %12) #12
  %19 = load ptr, ptr %7, align 8, !tbaa !75
  %20 = load ptr, ptr %8, align 8, !tbaa !11
  %21 = load i32, ptr %10, align 4, !tbaa !39
  %22 = call ptr @find_name_gnu(ptr noundef %19, ptr noundef %20, i32 noundef %21)
  store ptr %22, ptr %12, align 8, !tbaa !11
  %23 = load ptr, ptr %12, align 8, !tbaa !11
  %24 = icmp ne ptr %23, null
  br i1 %24, label %25, label %27

25:                                               ; preds = %18
  %26 = load ptr, ptr %12, align 8, !tbaa !11
  store ptr %26, ptr %6, align 8
  store i32 1, ptr %13, align 4
  br label %28

27:                                               ; preds = %18
  store i32 0, ptr %13, align 4
  br label %28

28:                                               ; preds = %27, %25
  call void @llvm.lifetime.end.p0(i64 8, ptr %12) #12
  %29 = load i32, ptr %13, align 4
  switch i32 %29, label %40 [
    i32 0, label %30
    i32 1, label %38
  ]

30:                                               ; preds = %28
  br label %31

31:                                               ; preds = %30, %5
  %32 = load ptr, ptr %7, align 8, !tbaa !75
  %33 = load ptr, ptr %8, align 8, !tbaa !11
  %34 = load ptr, ptr %9, align 8, !tbaa !11
  %35 = load i32, ptr %10, align 4, !tbaa !39
  %36 = load i32, ptr %11, align 4, !tbaa !39
  %37 = call ptr @find_name_common(ptr noundef %32, ptr noundef %33, ptr noundef %34, i32 noundef %35, ptr noundef null, i32 noundef %36)
  store ptr %37, ptr %6, align 8
  br label %38

38:                                               ; preds = %31, %28
  %39 = load ptr, ptr %6, align 8
  ret ptr %39

40:                                               ; preds = %28
  unreachable
}

; Function Attrs: nounwind uwtable
define internal i32 @gitdiff_renamedst(ptr noundef %0, ptr noundef %1, ptr noundef %2) #0 {
  %4 = alloca ptr, align 8
  %5 = alloca ptr, align 8
  %6 = alloca ptr, align 8
  store ptr %0, ptr %4, align 8, !tbaa !97
  store ptr %1, ptr %5, align 8, !tbaa !11
  store ptr %2, ptr %6, align 8, !tbaa !60
  %7 = load ptr, ptr %6, align 8, !tbaa !60
  %8 = getelementptr inbounds nuw %struct.patch, ptr %7, i32 0, i32 13
  %9 = load i16, ptr %8, align 8
  %10 = and i16 %9, -17
  %11 = or i16 %10, 16
  store i16 %11, ptr %8, align 8
  %12 = load ptr, ptr %6, align 8, !tbaa !60
  %13 = getelementptr inbounds nuw %struct.patch, ptr %12, i32 0, i32 0
  %14 = load ptr, ptr %13, align 8, !tbaa !67
  call void @free(ptr noundef %14) #12
  %15 = load ptr, ptr %4, align 8, !tbaa !97
  %16 = getelementptr inbounds nuw %struct.gitdiff_data, ptr %15, i32 0, i32 0
  %17 = load ptr, ptr %16, align 8, !tbaa !83
  %18 = load ptr, ptr %5, align 8, !tbaa !11
  %19 = load ptr, ptr %4, align 8, !tbaa !97
  %20 = getelementptr inbounds nuw %struct.gitdiff_data, ptr %19, i32 0, i32 2
  %21 = load i32, ptr %20, align 4, !tbaa !86
  %22 = icmp ne i32 %21, 0
  br i1 %22, label %23, label %28

23:                                               ; preds = %3
  %24 = load ptr, ptr %4, align 8, !tbaa !97
  %25 = getelementptr inbounds nuw %struct.gitdiff_data, ptr %24, i32 0, i32 2
  %26 = load i32, ptr %25, align 4, !tbaa !86
  %27 = sub nsw i32 %26, 1
  br label %29

28:                                               ; preds = %3
  br label %29

29:                                               ; preds = %28, %23
  %30 = phi i32 [ %27, %23 ], [ 0, %28 ]
  %31 = call ptr @find_name(ptr noundef %17, ptr noundef %18, ptr noundef null, i32 noundef %30, i32 noundef 0)
  %32 = load ptr, ptr %6, align 8, !tbaa !60
  %33 = getelementptr inbounds nuw %struct.patch, ptr %32, i32 0, i32 0
  store ptr %31, ptr %33, align 8, !tbaa !67
  ret i32 0
}